target datalayout = "e-m:e-p270:32:32-p271:32:32-p272:64:64-i64:64-i128:128-f80:128-n8:16:32:64-S128"
target triple = "x86_64-pc-linux-gnu"

%struct.iseq_compile_data = type { i64, i64, ptr, ptr, ptr, ptr, ptr, %struct.anon.13, %struct.anon.14, i8, i8, i32, i32, i32, i32, i32, i32, i32, ptr, ptr, ptr, ptr, i8 }
%struct.anon.13 = type { ptr, ptr }
%struct.anon.14 = type { ptr, ptr }
%struct.rb_iseq_struct = type { i64, i64, ptr, %union.anon.15 }
%union.anon.15 = type { %struct.anon.16 }
%struct.anon.16 = type { i64, i32 }

; Function Attrs: inlinehint nounwind sspstrong uwtable
define internal ptr @ISEQ_COMPILE_DATA(ptr noundef %0) #3 {
  %2 = alloca ptr, align 8
  %3 = alloca ptr, align 8
  store ptr %0, ptr %3, align 8, !tbaa !11
  %4 = load ptr, ptr %3, align 8, !tbaa !11
  %5 = getelementptr inbounds nuw %struct.rb_iseq_struct, ptr %4, i32 0, i32 0
  %6 = load i64, ptr %5, align 8, !tbaa !46
  %7 = and i64 %6, 262144
  %8 = icmp ne i64 %7, 0
  br i1 %8, label %9, label %13

9:                                                ; preds = %1
  %10 = load ptr, ptr %3, align 8, !tbaa !11
  %11 = getelementptr inbounds nuw %struct.rb_iseq_struct, ptr %10, i32 0, i32 3
  %12 = load ptr, ptr %11, align 8, !tbaa !49
  store ptr %12, ptr %2, align 8
  br label %14

13:                                               ; preds = %1
  store ptr null, ptr %2, align 8
  br label %14

14:                                               ; preds = %13, %9
  %15 = load ptr, ptr %2, align 8
  ret ptr %15
}

; Function Attrs: nounwind sspstrong uwtable
define internal ptr @new_child_iseq_with_callback(ptr noundef %0, ptr noundef %1, i64 noundef %2, ptr noundef %3, i32 noundef %4, i32 noundef %5) #0 {
  %7 = alloca ptr, align 8
  %8 = alloca ptr, align 8
  %9 = alloca i64, align 8
  %10 = alloca ptr, align 8
  %11 = alloca i32, align 4
  %12 = alloca i32, align 4
  %13 = alloca ptr, align 8
  store ptr %0, ptr %7, align 8, !tbaa !11
  store ptr %1, ptr %8, align 8, !tbaa !14
  store i64 %2, ptr %9, align 8, !tbaa !7
  store ptr %3, ptr %10, align 8, !tbaa !11
  store i32 %4, ptr %11, align 4, !tbaa !41
  store i32 %5, ptr %12, align 4, !tbaa !41
  call void @llvm.lifetime.start.p0(i64 8, ptr %13) #31
  %14 = load ptr, ptr %8, align 8, !tbaa !14
  %15 = load i64, ptr %9, align 8, !tbaa !7
  %16 = load ptr, ptr %7, align 8, !tbaa !11
  %17 = call i64 @rb_iseq_path(ptr noundef %16)
  %18 = load ptr, ptr %7, align 8, !tbaa !11
  %19 = call i64 @rb_iseq_realpath(ptr noundef %18)
  %20 = load i32, ptr %12, align 4, !tbaa !41
  %21 = load ptr, ptr %10, align 8, !tbaa !11
  %22 = load i32, ptr %11, align 4, !tbaa !41
  %23 = load ptr, ptr %7, align 8, !tbaa !11
  %24 = call ptr @ISEQ_COMPILE_DATA(ptr noundef %23)
  %25 = getelementptr inbounds nuw %struct.iseq_compile_data, ptr %24, i32 0, i32 18
  %26 = load ptr, ptr %25, align 8, !tbaa !51
  %27 = call ptr @rb_iseq_new_with_callback(ptr noundef %14, i64 noundef %15, i64 noundef %17, i64 noundef %19, i32 noundef %20, ptr noundef %21, i32 noundef %22, ptr noundef %26)
  store ptr %27, ptr %13, align 8, !tbaa !11
  %28 = load ptr, ptr %13, align 8, !tbaa !11
  call void @llvm.lifetime.end.p0(i64 8, ptr %13) #31
  ret ptr %28
}