; Function Attrs: nounwind sspstrong uwtable
define internal fastcc ptr @new_child_iseq_with_callback(ptr noundef %0, ptr noundef %1, i64 noundef %2, ptr noundef %3, i32 noundef range(i32 2, 5) %4, i32 noundef %5) unnamed_addr #1 {
ISEQ_COMPILE_DATA.exit:
  %6 = tail call i64 @rb_iseq_path(ptr noundef %0) #38
  %7 = tail call i64 @rb_iseq_realpath(ptr noundef %0) #38
  %8 = load i64, ptr %0, align 8, !tbaa !19
  %9 = and i64 %8, 262144
  %.not.i = icmp ne i64 %9, 0
  tail call void @llvm.assume(i1 %.not.i)
  %10 = getelementptr inbounds nuw i8, ptr %0, i64 24
  %11 = load ptr, ptr %10, align 8, !tbaa !22
  %12 = getelementptr inbounds nuw i8, ptr %11, i64 120
  %13 = load ptr, ptr %12, align 8, !tbaa !44
  %14 = tail call ptr @rb_iseq_new_with_callback(ptr noundef %1, i64 noundef %2, i64 noundef %6, i64 noundef %7, i32 noundef %5, ptr noundef %3, i32 noundef %4, ptr noundef %13) #38
  ret ptr %14
}